target datalayout = "e-m:e-p270:32:32-p271:32:32-p272:64:64-i64:64-i128:128-f80:128-n8:16:32:64-S128"
target triple = "x86_64-pc-linux-gnu"

; Function Attrs: alwaysinline nounwind
define internal ptr @memcpy.inline(ptr noalias nonnull %0, ptr noalias nonnull %1, i64 %2) #3 {
  %4 = alloca ptr, align 8
  %5 = alloca ptr, align 8
  %6 = alloca i64, align 8
  store ptr %0, ptr %4, align 8
  store ptr %1, ptr %5, align 8
  store i64 %2, ptr %6, align 8
  %7 = load ptr, ptr %4, align 8
  %8 = load ptr, ptr %5, align 8
  %9 = load i64, ptr %6, align 8
  %10 = load ptr, ptr %4, align 8
  %11 = call i64 @llvm.objectsize.i64.p0(ptr %10, i1 false, i1 true, i1 true)
  %12 = call ptr @__memcpy_chk(ptr noundef %7, ptr noundef %8, i64 noundef %9, i64 noundef %11) #7
  ret ptr %12
}

; Function Attrs: nounwind ssp uwtable
define dso_local void @crypto_core_ed25519_scalar_reduce(ptr noundef nonnull %0, ptr noundef nonnull %1) #0 {
  %3 = alloca ptr, align 8
  %4 = alloca ptr, align 8
  %5 = alloca [64 x i8], align 16
  store ptr %0, ptr %3, align 8
  store ptr %1, ptr %4, align 8
  call void @llvm.lifetime.start.p0(i64 64, ptr %5) #7
  %6 = getelementptr inbounds [64 x i8], ptr %5, i64 0, i64 0
  %7 = load ptr, ptr %4, align 8
  %8 = call ptr @memcpy.inline(ptr noundef %6, ptr noundef %7, i64 noundef 64) #7
  %9 = getelementptr inbounds [64 x i8], ptr %5, i64 0, i64 0
  call void @_sodium_sc25519_reduce(ptr noundef %9)
  %10 = load ptr, ptr %3, align 8
  %11 = getelementptr inbounds [64 x i8], ptr %5, i64 0, i64 0
  %12 = call ptr @memcpy.inline(ptr noundef %10, ptr noundef %11, i64 noundef 32) #7
  %13 = getelementptr inbounds [64 x i8], ptr %5, i64 0, i64 0
  call void @sodium_memzero(ptr noundef %13, i64 noundef 64)
  call void @llvm.lifetime.end.p0(i64 64, ptr %5) #7
  ret void
}