; Function Attrs: nounwind ssp uwtable
define dso_local void @crypto_core_ed25519_scalar_reduce(ptr noundef nonnull %0, ptr noundef nonnull readonly captures(none) %1) local_unnamed_addr #0 {
  %3 = alloca [64 x i8], align 16
  call void @llvm.lifetime.start.p0(i64 64, ptr nonnull %3) #6
  call void @llvm.memcpy.p0.p0.i64(ptr noundef nonnull align 16 dereferenceable(64) %3, ptr noundef nonnull align 1 dereferenceable(64) %1, i64 noundef 64, i1 noundef false) #6
  call void @_sodium_sc25519_reduce(ptr noundef nonnull %3) #6
  call void @llvm.memcpy.p0.p0.i64(ptr noundef nonnull align 1 dereferenceable(32) %0, ptr noundef nonnull align 16 dereferenceable(32) %3, i64 noundef 32, i1 noundef false) #6
  call void @sodium_memzero(ptr noundef nonnull %3, i64 noundef 64) #6
  call void @llvm.lifetime.end.p0(i64 64, ptr nonnull %3) #6
  ret void
}